target datalayout = "e-m:e-p270:32:32-p271:32:32-p272:64:64-i64:64-i128:128-f80:128-n8:16:32:64-S128"
target triple = "x86_64-pc-linux-gnu"

%"struct.url::Component" = type { i32, i32 }

; Function Attrs: mustprogress nounwind uwtable
define linkonce_odr void @_ZN3url9ComponentC2Eii(ptr noundef nonnull align 4 dereferenceable(8) %0, i32 noundef %1, i32 noundef %2) unnamed_addr #1 comdat align 2 {
  %4 = alloca ptr, align 8
  %5 = alloca i32, align 4
  %6 = alloca i32, align 4
  store ptr %0, ptr %4, align 8, !tbaa !12
  store i32 %1, ptr %5, align 4, !tbaa !17
  store i32 %2, ptr %6, align 4, !tbaa !17
  %7 = load ptr, ptr %4, align 8
  %8 = getelementptr inbounds nuw %"struct.url::Component", ptr %7, i32 0, i32 0
  %9 = load i32, ptr %5, align 4, !tbaa !17
  store i32 %9, ptr %8, align 4, !tbaa !14
  %10 = getelementptr inbounds nuw %"struct.url::Component", ptr %7, i32 0, i32 1
  %11 = load i32, ptr %6, align 4, !tbaa !17
  store i32 %11, ptr %10, align 4, !tbaa !15
  ret void
}

; Function Attrs: inlinehint mustprogress uwtable
define linkonce_odr i64 @_ZN3url9MakeRangeEii(i32 noundef %0, i32 noundef %1) #7 comdat {
  %3 = alloca %"struct.url::Component", align 4
  %4 = alloca i32, align 4
  %5 = alloca i32, align 4
  store i32 %0, ptr %4, align 4, !tbaa !17
  store i32 %1, ptr %5, align 4, !tbaa !17
  %6 = load i32, ptr %4, align 4, !tbaa !17
  %7 = load i32, ptr %5, align 4, !tbaa !17
  %8 = load i32, ptr %4, align 4, !tbaa !17
  %9 = sub nsw i32 %7, %8
  call void @_ZN3url9ComponentC2Eii(ptr noundef nonnull align 4 dereferenceable(8) %3, i32 noundef %6, i32 noundef %9)
  %10 = load i64, ptr %3, align 4
  ret i64 %10
}

; Function Attrs: inlinehint mustprogress nounwind uwtable
define linkonce_odr noundef zeroext i1 @_ZN3url10IsURLSlashEt(i16 noundef zeroext %0) #5 comdat {
  %2 = alloca i16, align 2
  store i16 %0, ptr %2, align 2, !tbaa !40
  %3 = load i16, ptr %2, align 2, !tbaa !40
  %4 = zext i16 %3 to i32
  %5 = icmp eq i32 %4, 47
  br i1 %5, label %10, label %6

6:                                                ; preds = %1
  %7 = load i16, ptr %2, align 2, !tbaa !40
  %8 = zext i16 %7 to i32
  %9 = icmp eq i32 %8, 92
  br label %10

10:                                               ; preds = %6, %1
  %11 = phi i1 [ true, %1 ], [ %9, %6 ]
  ret i1 %11
}

; Function Attrs: mustprogress nounwind uwtable
define linkonce_odr noundef i32 @_ZNK3url9Component3endEv(ptr noundef nonnull align 4 dereferenceable(8) %0) #1 comdat align 2 {
  %2 = alloca ptr, align 8
  store ptr %0, ptr %2, align 8, !tbaa !12
  %3 = load ptr, ptr %2, align 8
  %4 = getelementptr inbounds nuw %"struct.url::Component", ptr %3, i32 0, i32 0
  %5 = load i32, ptr %4, align 4, !tbaa !14
  %6 = getelementptr inbounds nuw %"struct.url::Component", ptr %3, i32 0, i32 1
  %7 = load i32, ptr %6, align 4, !tbaa !15
  %8 = add nsw i32 %5, %7
  ret i32 %8
}

; Function Attrs: mustprogress nounwind uwtable
define linkonce_odr void @_ZN3url9Component5resetEv(ptr noundef nonnull align 4 dereferenceable(8) %0) #1 comdat align 2 {
  %2 = alloca ptr, align 8
  store ptr %0, ptr %2, align 8, !tbaa !12
  %3 = load ptr, ptr %2, align 8
  %4 = getelementptr inbounds nuw %"struct.url::Component", ptr %3, i32 0, i32 0
  store i32 0, ptr %4, align 4, !tbaa !14
  %5 = getelementptr inbounds nuw %"struct.url::Component", ptr %3, i32 0, i32 1
  store i32 -1, ptr %5, align 4, !tbaa !15
  ret void
}

; Function Attrs: mustprogress nounwind uwtable
define linkonce_odr noundef zeroext i1 @_ZNK3url9Component11is_nonemptyEv(ptr noundef nonnull align 4 dereferenceable(8) %0) #1 comdat align 2 {
  %2 = alloca ptr, align 8
  store ptr %0, ptr %2, align 8, !tbaa !12
  %3 = load ptr, ptr %2, align 8
  %4 = getelementptr inbounds nuw %"struct.url::Component", ptr %3, i32 0, i32 1
  %5 = load i32, ptr %4, align 4, !tbaa !15
  %6 = icmp sgt i32 %5, 0
  ret i1 %6
}

; Function Attrs: mustprogress uwtable
define internal void @_ZN3url12_GLOBAL__N_117DoExtractFileNameItEEvPKT_RKNS_9ComponentEPS5_(ptr noundef %0, ptr noundef nonnull align 4 dereferenceable(8) %1, ptr noundef %2) #0 {
  %4 = alloca ptr, align 8
  %5 = alloca ptr, align 8
  %6 = alloca ptr, align 8
  %7 = alloca i32, align 4
  %8 = alloca i32, align 4
  %9 = alloca i32, align 4
  %10 = alloca %"struct.url::Component", align 4
  %11 = alloca %"struct.url::Component", align 4
  store ptr %0, ptr %4, align 8, !tbaa !38
  store ptr %1, ptr %5, align 8, !tbaa !12
  store ptr %2, ptr %6, align 8, !tbaa !12
  %12 = load ptr, ptr %5, align 8, !tbaa !12
  %13 = call noundef zeroext i1 @_ZNK3url9Component11is_nonemptyEv(ptr noundef nonnull align 4 dereferenceable(8) %12)
  br i1 %13, label %16, label %14

14:                                               ; preds = %3
  %15 = load ptr, ptr %6, align 8, !tbaa !12
  call void @_ZN3url9Component5resetEv(ptr noundef nonnull align 4 dereferenceable(8) %15)
  br label %67

16:                                               ; preds = %3
  call void @llvm.lifetime.start.p0(i64 4, ptr %7) #13
  %17 = load ptr, ptr %5, align 8, !tbaa !12
  %18 = call noundef i32 @_ZNK3url9Component3endEv(ptr noundef nonnull align 4 dereferenceable(8) %17)
  store i32 %18, ptr %7, align 4, !tbaa !17
  call void @llvm.lifetime.start.p0(i64 4, ptr %8) #13
  %19 = load ptr, ptr %5, align 8, !tbaa !12
  %20 = call noundef i32 @_ZNK3url9Component3endEv(ptr noundef nonnull align 4 dereferenceable(8) %19)
  %21 = sub nsw i32 %20, 1
  store i32 %21, ptr %8, align 4, !tbaa !17
  br label %22

22:                                               ; preds = %54, %16
  %23 = load i32, ptr %8, align 4, !tbaa !17
  %24 = load ptr, ptr %5, align 8, !tbaa !12
  %25 = getelementptr inbounds nuw %"struct.url::Component", ptr %24, i32 0, i32 0
  %26 = load i32, ptr %25, align 4, !tbaa !14
  %27 = icmp sge i32 %23, %26
  br i1 %27, label %29, label %28

28:                                               ; preds = %22
  store i32 2, ptr %9, align 4
  br label %57

29:                                               ; preds = %22
  %30 = load ptr, ptr %4, align 8, !tbaa !38
  %31 = load i32, ptr %8, align 4, !tbaa !17
  %32 = sext i32 %31 to i64
  %33 = getelementptr inbounds i16, ptr %30, i64 %32
  %34 = load i16, ptr %33, align 2, !tbaa !40
  %35 = zext i16 %34 to i32
  %36 = icmp eq i32 %35, 59
  br i1 %36, label %37, label %39

37:                                               ; preds = %29
  %38 = load i32, ptr %8, align 4, !tbaa !17
  store i32 %38, ptr %7, align 4, !tbaa !17
  br label %53

39:                                               ; preds = %29
  %40 = load ptr, ptr %4, align 8, !tbaa !38
  %41 = load i32, ptr %8, align 4, !tbaa !17
  %42 = sext i32 %41 to i64
  %43 = getelementptr inbounds i16, ptr %40, i64 %42
  %44 = load i16, ptr %43, align 2, !tbaa !40
  %45 = call noundef zeroext i1 @_ZN3url10IsURLSlashEt(i16 noundef zeroext %44)
  br i1 %45, label %46, label %52

46:                                               ; preds = %39
  call void @llvm.lifetime.start.p0(i64 8, ptr %10) #13
  %47 = load i32, ptr %8, align 4, !tbaa !17
  %48 = add nsw i32 %47, 1
  %49 = load i32, ptr %7, align 4, !tbaa !17
  %50 = call i64 @_ZN3url9MakeRangeEii(i32 noundef %48, i32 noundef %49)
  store i64 %50, ptr %10, align 4
  %51 = load ptr, ptr %6, align 8, !tbaa !12
  call void @llvm.memcpy.p0.p0.i64(ptr align 4 %51, ptr align 4 %10, i64 8, i1 false), !tbaa.struct !16
  call void @llvm.lifetime.end.p0(i64 8, ptr %10) #13
  store i32 1, ptr %9, align 4
  br label %57

52:                                               ; preds = %39
  br label %53

53:                                               ; preds = %52, %37
  br label %54

54:                                               ; preds = %53
  %55 = load i32, ptr %8, align 4, !tbaa !17
  %56 = add nsw i32 %55, -1
  store i32 %56, ptr %8, align 4, !tbaa !17
  br label %22, !llvm.loop !45

57:                                               ; preds = %46, %28
  call void @llvm.lifetime.end.p0(i64 4, ptr %8) #13
  %58 = load i32, ptr %9, align 4
  switch i32 %58, label %66 [
    i32 2, label %59
  ]

59:                                               ; preds = %57
  call void @llvm.lifetime.start.p0(i64 8, ptr %11) #13
  %60 = load ptr, ptr %5, align 8, !tbaa !12
  %61 = getelementptr inbounds nuw %"struct.url::Component", ptr %60, i32 0, i32 0
  %62 = load i32, ptr %61, align 4, !tbaa !14
  %63 = load i32, ptr %7, align 4, !tbaa !17
  %64 = call i64 @_ZN3url9MakeRangeEii(i32 noundef %62, i32 noundef %63)
  store i64 %64, ptr %11, align 4
  %65 = load ptr, ptr %6, align 8, !tbaa !12
  call void @llvm.memcpy.p0.p0.i64(ptr align 4 %65, ptr align 4 %11, i64 8, i1 false), !tbaa.struct !16
  call void @llvm.lifetime.end.p0(i64 8, ptr %11) #13
  store i32 1, ptr %9, align 4
  br label %66

66:                                               ; preds = %59, %57
  call void @llvm.lifetime.end.p0(i64 4, ptr %7) #13
  br label %67

67:                                               ; preds = %66, %14
  ret void
}

; Function Attrs: mustprogress uwtable
define void @_ZN3url15ExtractFileNameEPKtRKNS_9ComponentEPS2_(ptr noundef %0, ptr noundef nonnull align 4 dereferenceable(8) %1, ptr noundef %2) #0 {
  %4 = alloca ptr, align 8
  %5 = alloca ptr, align 8
  %6 = alloca ptr, align 8
  store ptr %0, ptr %4, align 8, !tbaa !38
  store ptr %1, ptr %5, align 8, !tbaa !12
  store ptr %2, ptr %6, align 8, !tbaa !12
  %7 = load ptr, ptr %4, align 8, !tbaa !38
  %8 = load ptr, ptr %5, align 8, !tbaa !12
  %9 = load ptr, ptr %6, align 8, !tbaa !12
  call void @_ZN3url12_GLOBAL__N_117DoExtractFileNameItEEvPKT_RKNS_9ComponentEPS5_(ptr noundef %7, ptr noundef nonnull align 4 dereferenceable(8) %8, ptr noundef %9)
  ret void
}