; Function Attrs: mustprogress nofree norecurse nosync nounwind memory(argmem: readwrite) uwtable
define void @_ZN3url15ExtractFileNameEPKtRKNS_9ComponentEPS2_(ptr noundef readonly captures(none) %0, ptr noundef nonnull readonly align 4 captures(none) dereferenceable(8) %1, ptr noundef writeonly captures(none) %2) local_unnamed_addr #6 {
  %4 = getelementptr inbounds nuw i8, ptr %1, i64 4
  %5 = load i32, ptr %4, align 4, !tbaa !8
  %6 = icmp sgt i32 %5, 0
  br i1 %6, label %9, label %7

7:                                                ; preds = %3
  store i32 0, ptr %2, align 4, !tbaa !3
  %8 = getelementptr inbounds nuw i8, ptr %2, i64 4
  store i32 -1, ptr %8, align 4, !tbaa !8
  br label %_ZN3url12_GLOBAL__N_117DoExtractFileNameItEEvPKT_RKNS_9ComponentEPS5_.exit

9:                                                ; preds = %3
  %10 = load i32, ptr %1, align 4, !tbaa !3
  %11 = add i32 %10, %5
  %12 = sext i32 %11 to i64
  %13 = sext i32 %10 to i64
  br label %14

14:                                               ; preds = %21, %9
  %indvars.iv.i = phi i64 [ %12, %9 ], [ %indvars.iv.next.i, %21 ]
  %.029.i = phi i32 [ %11, %9 ], [ %.1.i, %21 ]
  %indvars.iv.next.i = add nsw i64 %indvars.iv.i, -1
  %15 = getelementptr inbounds i16, ptr %0, i64 %indvars.iv.next.i
  %16 = load i16, ptr %15, align 2, !tbaa !25
  %17 = trunc nsw i64 %indvars.iv.next.i to i32
  switch i16 %16, label %.fold.split.i [
    i16 59, label %21
    i16 92, label %18
    i16 47, label %18
  ]

18:                                               ; preds = %14, %14
  %19 = trunc nsw i64 %indvars.iv.i to i32
  %20 = sub nsw i32 %.029.i, %19
  %.sroa.2.0.insert.ext.i.i = zext i32 %20 to i64
  %.sroa.2.0.insert.shift.i.i = shl nuw i64 %.sroa.2.0.insert.ext.i.i, 32
  %.sroa.0.0.insert.ext.i.i = and i64 %indvars.iv.i, 4294967295
  %.sroa.0.0.insert.insert.i.i = or disjoint i64 %.sroa.2.0.insert.shift.i.i, %.sroa.0.0.insert.ext.i.i
  store i64 %.sroa.0.0.insert.insert.i.i, ptr %2, align 4
  br label %_ZN3url12_GLOBAL__N_117DoExtractFileNameItEEvPKT_RKNS_9ComponentEPS5_.exit

.fold.split.i:                                    ; preds = %14
  br label %21

21:                                               ; preds = %.fold.split.i, %14
  %.1.i = phi i32 [ %17, %14 ], [ %.029.i, %.fold.split.i ]
  %.not.not.not.i = icmp sgt i64 %indvars.iv.next.i, %13
  br i1 %.not.not.not.i, label %14, label %.critedge.i, !llvm.loop !30

.critedge.i:                                      ; preds = %21
  %22 = sub nsw i32 %.1.i, %10
  %.sroa.2.0.insert.ext.i21.i = zext i32 %22 to i64
  %.sroa.2.0.insert.shift.i22.i = shl nuw i64 %.sroa.2.0.insert.ext.i21.i, 32
  %.sroa.0.0.insert.ext.i23.i = zext i32 %10 to i64
  %.sroa.0.0.insert.insert.i24.i = or disjoint i64 %.sroa.2.0.insert.shift.i22.i, %.sroa.0.0.insert.ext.i23.i
  store i64 %.sroa.0.0.insert.insert.i24.i, ptr %2, align 4
  br label %_ZN3url12_GLOBAL__N_117DoExtractFileNameItEEvPKT_RKNS_9ComponentEPS5_.exit

_ZN3url12_GLOBAL__N_117DoExtractFileNameItEEvPKT_RKNS_9ComponentEPS5_.exit: ; preds = %7, %18, %.critedge.i
  ret void
}